; Function Attrs: nofree norecurse nosync nounwind memory(read, inaccessiblemem: none) uwtable
define range(i32 0, 2) i32 @Ga2_ManCheckNodesAnd(ptr noundef readonly captures(none) %0, ptr noundef readonly captures(none) %1) local_unnamed_addr #3 {
  %3 = getelementptr i8, ptr %1, i64 4
  %.val17 = load i32, ptr %3, align 4
  %4 = icmp sgt i32 %.val17, 0
  br i1 %4, label %.lr.ph, label %.critedge

.lr.ph:                                           ; preds = %2
  %5 = getelementptr i8, ptr %1, i64 8
  %.val18 = load ptr, ptr %5, align 8
  %6 = getelementptr i8, ptr %0, i64 32
  %.val19 = load ptr, ptr %6, align 8
  %.not = icmp eq ptr %.val19, null
  br i1 %.not, label %.critedge, label %.lr.ph.split.preheader

.lr.ph.split.preheader:                           ; preds = %.lr.ph
  %wide.trip.count = zext nneg i32 %.val17 to i64
  br label %.lr.ph.split

7:                                                ; preds = %18
  %indvars.iv.next = add nuw nsw i64 %indvars.iv, 1
  %exitcond.not = icmp eq i64 %indvars.iv.next, %wide.trip.count
  br i1 %exitcond.not, label %.critedge, label %.lr.ph.split, !llvm.loop !7

.lr.ph.split:                                     ; preds = %.lr.ph.split.preheader, %7
  %indvars.iv = phi i64 [ 0, %.lr.ph.split.preheader ], [ %indvars.iv.next, %7 ]
  %8 = getelementptr inbounds nuw i32, ptr %.val18, i64 %indvars.iv
  %9 = load i32, ptr %8, align 4
  %10 = sext i32 %9 to i64
  %11 = getelementptr inbounds %struct.Gia_Obj_t_, ptr %.val19, i64 %10
  %12 = load i64, ptr %11, align 4
  %13 = and i64 %12, 536870911
  %14 = sub nsw i64 0, %13
  %15 = getelementptr inbounds %struct.Gia_Obj_t_, ptr %11, i64 %14
  %16 = load i64, ptr %15, align 4
  %.not12 = icmp slt i64 %16, 0
  %17 = and i64 %12, 536870912
  %.not13 = icmp eq i64 %17, 0
  %or.cond = or i1 %.not12, %.not13
  br i1 %or.cond, label %18, label %.critedge

18:                                               ; preds = %.lr.ph.split
  %19 = lshr i64 %12, 32
  %20 = and i64 %19, 536870911
  %21 = sub nsw i64 0, %20
  %22 = getelementptr inbounds %struct.Gia_Obj_t_, ptr %11, i64 %21
  %23 = load i64, ptr %22, align 4
  %.not14 = icmp slt i64 %23, 0
  %24 = and i64 %12, 2305843009213693952
  %.not15 = icmp eq i64 %24, 0
  %or.cond20 = or i1 %.not15, %.not14
  br i1 %or.cond20, label %7, label %.critedge

.critedge:                                        ; preds = %7, %.lr.ph.split, %18, %.lr.ph, %2
  %.010 = phi i32 [ 1, %2 ], [ 1, %.lr.ph ], [ 0, %18 ], [ 0, %.lr.ph.split ], [ 1, %7 ]
  ret i32 %.010
}